(dp1
S'OriginalConfig'
p2
ccopy_reg
_reconstructor
p3
(cWMCore.Configuration
Configuration
p4
c__builtin__
object
p5
NtRp6
(dp7
S'Site'
p8
g3
(cWMCore.Configuration
ConfigSection
p9
g5
NtRp10
(dp11
S'_internal_skipChecks'
p12
I00
sS'_internal_documentation'
p13
S''
sS'_internal_settings'
p14
c__builtin__
set
p15
((lp16
S'whitelist'
p17
aS'storageSite'
p18
atRp19
sS'_internal_name'
p20
g8
sS'_internal_docstrings'
p21
(dp22
sS'_internal_children'
p23
g15
((ltRp24
sg18
S'T2_IT_Rome'
p25
sS'_internal_parent_ref'
p26
Nsg17
(lp27
g25
asbsS'_internal_sections'
p28
(lp29
S'General'
p30
aS'JobType'
p31
aS'Data'
p32
ag8
aS'User'
p33
aS'Debug'
p34
asg30
g3
(g9
g5
NtRp35
(dp36
S'transferLogs'
p37
I01
sg12
I00
sg13
S''
sg14
g15
((lp38
g37
aS'transferOutputs'
p39
aS'workArea'
p40
aS'requestName'
p41
atRp42
sg20
g30
sg21
(dp43
sg39
I01
sg23
g15
((ltRp44
sg41
S'privateHNL_2021Jan02'
p45
sg26
Nsg40
S'crab_privateMCProduction'
p46
sbsS'_internal_webapps'
p47
(lp48
sg33
g3
(g9
g5
NtRp49
(dp50
g12
I00
sg13
S''
sg14
g15
((ltRp51
sg20
g33
sg21
(dp52
sg23
g15
((ltRp53
sg26
NsbsS'_internal_components'
p54
(lp55
sg34
g3
(g9
g5
NtRp56
(dp57
g12
I00
sg13
S''
sg14
g15
((ltRp58
sg20
g34
sg21
(dp59
sg23
g15
((ltRp60
sg26
Nsbsg32
g3
(g9
g5
NtRp61
(dp62
S'outputDatasetTag'
p63
S'privateHNL_2021Jan02'
p64
sg12
I00
sS'unitsPerJob'
p65
I1
sg13
S''
sg14
g15
((lp66
g63
aS'publication'
p67
ag65
aS'splitting'
p68
aS'outLFNDirBase'
p69
aS'outputPrimaryDataset'
p70
aS'totalUnits'
p71
atRp72
sg69
S'/store/user/ratramon/HNLGen_ntuples/'
p73
sg20
g32
sg68
S'EventBased'
p74
sg21
(dp75
sg23
g15
((ltRp76
sg67
I00
sg70
S'privateHNL'
p77
sg26
Nsg71
I1
sbsg31
g3
(g9
g5
NtRp78
(dp79
g12
I00
sg13
S''
sg14
g15
((lp80
S'maxMemoryMB'
p81
aS'disableAutomaticOutputCollection'
p82
aS'scriptExe'
p83
aS'pluginName'
p84
aS'allowUndistributedCMSSW'
p85
aS'psetName'
p86
aS'inputFiles'
p87
aS'eventsPerLumi'
p88
atRp89
sg20
g31
sg83
S'/afs/cern.ch/work/r/ratramon/HNL/CMSSW_10_2_15/src/HNLsGen/slurm/V00_v00_n10_njt1/slurm_mass1.0_ctau107.535167851_prod.sh'
p90
sg21
(dp91
sg84
S'PrivateMC'
p92
sg23
g15
((ltRp93
sg85
I01
sg86
S'pset.py'
p94
sg26
Nsg87
(lp95
S'/afs/cern.ch/work/r/ratramon/HNL/CMSSW_10_2_15/src/HNLsGen/slurm/V00_v00_n10_njt1/BPH_mod_BtoDMuN_NtoE_cfg.py'
p96
aS'/afs/cern.ch/work/r/ratramon/HNL/CMSSW_10_2_15/src/HNLsGen/slurm/V00_v00_n10_njt1/step2.py'
p97
aS'/afs/cern.ch/work/r/ratramon/HNL/CMSSW_10_2_15/src/HNLsGen/slurm/V00_v00_n10_njt1/step3.py'
p98
aS'/afs/cern.ch/work/r/ratramon/HNL/CMSSW_10_2_15/src/HNLsGen/slurm/V00_v00_n10_njt1/step4.py'
p99
aS'/afs/cern.ch/work/r/ratramon/HNL/CMSSW_10_2_15/src/HNLsGen/data/pileup_2018.root'
p100
aS'/afs/cern.ch/work/r/ratramon/HNL/CMSSW_10_2_15/src/HNLsGen/evtGenData/evt_2014_mass1.0_ctau107.535167851.pdl'
p101
asg82
I00
sg88
I1
sg81
I2500
sbsbsS'voGroup'
p102
S''
sS'Server'
p103
S'cmsweb-k8s-prod.cern.ch'
p104
sS'instance'
p105
S'prod'
p106
sS'RequestName'
p107
V210102_112755:ratramon_crab_privateHNL_2021Jan02
p108
sS'voRole'
p109
S'NULL'
p110
sS'Port'
p111
S''
s.